
 Start         Length     Name                   Class
 0002:00000000 00000A68CH .text                  CODE
 0003:00000000 000002164H .data                  DATA
 0004:00000000 00001F160H .rsrc                  DATA


  Address         Publics by Value

 0001:00000405       _WinMain@16
 0001:000004DE       _NPWndProc@16
 0001:00000564       @__security_check_cookie@4
 0001:000005B5       _memset
 0001:000005BC       WindowName
 0001:000005C3       _StringCchPrintfW
 0001:00000664       _CheckSave@4
 0001:0000070A       _UpdateStatusBar@4
 0001:000007BB       _WinEventFunc@28
 0001:00000809       _NPCommand@12
 0001:00000963       _SaveGlobals@0
 0001:00000A1C       _FreeGlobal@0
 0001:00000A72       __SEH_epilog4_GS
 0001:00000AA5       _NpResetMenu@4
 0001:00000E66       _NPInit@12
 0001:0000136C       aW
 0001:00001374       aA
 0001:0000137C       TableName
 0001:0000138C       aCommdlg_help
 0001:000013A8       String
 0001:000013D0       __SEH_epilog4
 0001:00001409       _NPSize@8
 0001:0000144B       _memcpy
 0001:00001456       _SetTitle@4
 0001:00001558       _StringCchCopyW@12
 0001:000015CB       _SkipBlanks@4
 0001:000015EF       _ProcessSetupOption@4
 0001:0000161C       a_setup
 0001:00001631       _ProcessShellOptions@8
 0001:00001674       aP
 0001:0000167C       aPt
 0001:000016D5       _CreateFilter@8
 0001:00001704       pszFormat
 0001:00001733       _CheckWindowsGenuineStatus@0
 0001:000017B0       SourceString
 0001:000017F0       __chkstk
 0001:00001820       _LoadFile@8
 0001:00001B64       __SEH_prolog4_GS
 0001:00001BAC       __SEH_epilog4_GS_0
 0001:00001C0D       _GetFileName@12
 0001:00001CE0       aIpointsize
 0001:00001CF8       aLffacename
 0001:00001D10       aLfpitchandfami
 0001:00001D34       aLfquality
 0001:00001D48       aLfclipprecisio
 0001:00001D68       aLfoutprecision
 0001:00001D88       aLfcharset
 0001:00001D9C       aLfstrikeout
 0001:00001DB4       aLfunderline
 0001:00001DCC       aLfitalic
 0001:00001DE0       aLfweight
 0001:00001DF4       aLforientation
 0001:00001E10       ValueName
 0001:00001E2C       SubKey
 0001:00001E64       aIwindowposdy
 0001:00001E80       aIwindowposdx
 0001:00001E9C       aIwindowposy
 0001:00001EB4       aIwindowposx
 0001:00001ECC       aImarginright
 0001:00001EE8       aImarginleft
 0001:00001F00       aImarginbottom
 0001:00001F1C       aImargintop
 0001:00001F34       aSztrailer
 0001:00001F48       aSzheader
 0001:00001F5C       aStatusbar
 0001:00001F70       aFwrap
 0001:00001F7C       aEdit
 0001:00001F8B       _SetPageSetupDefaults@0
 0001:0000202D       ___CxxSetUnhandledExceptionFilter
 0001:00002040       __initterm
 0001:0000204B       __setargv
 0001:00002053       ___security_init_cookie
 0001:000020E2       _GetGlobals@0
 0001:00002498       aFmle_is_broken
 0001:000024B8       aFsavewindowpos
 0001:000024E8       aSoftwareMicros
 0001:00002538       aLucidaConsole
 0001:0000255B       _RegGetInt@12
 0001:000025B0       _RegGetString@20
 0001:0000260C       _SkipProgramName@4
 0001:00002660       __initterm_e
 0001:00002689       _WinMainCRTStartup
 0001:00002784       ___xc_a
 0001:0000278C       ___xc_z
 0001:00002790       ___xi_a
 0001:0000279C       ___xi_z
 0001:0000286C       ClassName
 0001:00002881       _InitStrings@4
 0001:0000292D       _SizeStrings@4
 0001:00002A48       __setdefaultprecision
 0001:00002A60       __get_image_app_type
 0001:00002A98       _RtlpImageNtHeader@4
 0001:00002B0C       __SEH_prolog4
 0001:00002B51       __SEH_epilog4_0
 0001:00002BCD       _ShowOpenSaveDialog@16
 0001:00002C46       _SignalHResultError@4
 0001:00002C61       _CFileDialogEvents_OnTypeChange@8
 0001:00002C6C       aTxt
 0001:00002C74       _IID_IFileDialogCustomize
 0001:00002C89       _AddEncodingComboBox@4
 0001:00002D1B       _SetDialogViewFilters@4
 0001:00002D54       a_
 0001:00002D5C       pszPath
 0001:00002D6D       _InvokeSaveDialog@16
 0001:00002E50       _IID_IFileSaveDialog
 0001:00002E60       _CLSID_FileSaveDialog
 0001:00002E75       _SetDefaultSaveItem@8
 0001:00002EA6       _CFileDialogEvents_Release@4
 0001:00002F21       _InvokeOpenDialog@8
 0001:0000300C       _IID_IFileDialog
 0001:0000301C       _CLSID_FileOpenDialog
 0001:00003038       _IID_IFileDialogEvents
 0001:0000304D       _CFileDialogControlEvents_OnButtonClicked@12
 0001:0000305A       _CFileDialogEvents_CreateInstance@8
 0001:00003073       _CreateFileDialogEvents@8
 0001:000030C4       _CFileDialogEvents_QueryInterface@12
 0001:000030FB       _CFileDialogEvents_AddRef@4
 0001:00003116       _PrintIt@4
 0001:0000314E       _NpPrint@4
 0001:00003194       _GetPrinterDCviaDialog@0
 0001:00003240       _PageSetupHookProc@16
 0001:0000332B       _SignalCommDlgError@0
 0001:000033D0       _IID_IHxHelpPane
 0001:000033E0       _CLSID_HxHelpPane
 0001:000033F5       _WinSqmCreateStringStreamEntry@8
 0001:00003420       aNull
 0001:0000349D       _ShowHelp@0
 0001:000034F8       psz
 0001:0000356C       aHelp_entry_id_
 0001:000035A7       _FireHelpEntryDataPoint@4
 0001:000035E1       _WinSqmAddToStream@16
 0001:00003628       _CheckSaveTaskDlgBox@4
 0001:00003748       _buttons
 0001:0000378B       _RegWriteString@12
 0001:000037BA       _MergeStrings@16
 0001:0000398E       _RegWriteInt@12
 0001:000039F4       _IID_IFileDialogControlEvents
 0001:00003A04       _IID_IUnknown
 0001:00003AF0       _IID_IShellItem
 0001:0000463C       aSlipupacc
 0001:00005B10       aStringfileinfo
 0001:00005B64       SubBlock
 0001:00005B98       aSppsvc_exe
 0001:00005BB0       aSlui_exe
 0001:00005BC4       aSppuinotify_dl
 0001:00005BE8       aSppsvc
 0001:00005BF8       ServiceName
 0001:00005D38       _s_SaveAsHelpIDs
 0001:00005D50       aD
 0001:00005D58       __load_config_used
 0001:00005DA0       ___safe_se_handler_table
 0001:00005DA9       _CFileDialogEvents_OnFileOk@8
 0001:00005DB3       _CFileDialogEvents_OnOverwrite@16
 0001:00005DC0       _CFileDialogControlEvents_AddRef@4
 0001:00005DDA       _CFileDialogControlEvents_Release@4
 0001:00005DF4       _CFileDialogControlEvents_OnItemSelected@16
 0001:00005E12       _CFileDialogControlEvents_QueryInterface@12
 0001:00005E32       _UpdateEncoding@8
 0001:00005F5C       _CFileDialogEvents_OnSelectionChange@8
 0001:00005FB9       _GotoAndScrollInView@4
 0001:00006008       _PFileInPath@4
 0001:00006051       _AlertBox@20
 0001:000060D3       _ReplaceSel@4
 0001:000061C2       _fDetermineFileType@8
 0001:0000622E       _NpSaveDialogHookProc@16
 0001:0000639B       _NpOpenDialogHookProc@16
 0001:0000665B       _GotoDlgProc@16
 0001:000067F3       __LegacyFileDialogToHR@4
 0001:00006823       _InvokeLegacyOpenDialog@8
 0001:000068D3       _InvokeLegacySaveDialog@12
 0001:00006985       _FileDragOpen@0
 0001:000069E3       _doDrop@8
 0001:00006A3C       _EnumProc@16
 0001:00006A58       _ReverseEndian@12
 0001:00006A90       _AnsiWriteFile@20
 0001:00006B40       _ClearFmt@0
 0001:00006BA2       _RestoreFmt@0
 0001:00006BF6       _AlertUser_FileFail@4
 0001:00006CD7       _SaveFile@12
 0001:00006F99       _StringCchCatW@12
 0001:0000700F       _New@4
 0001:000070E4       _AddExt@8
 0001:00007134       a_txt
 0001:00007143       _ReverseScan@20
 0001:0000718F       _ForwardScan@20
 0001:000071DB       _Search@4
 0001:00007383       _NpReCreate@4
 0001:000075E5       _CountSearchHits@16
 0001:00007639       _FastReplaceAll@0
 0001:000077C5       _AbortProc@8
 0001:0000782E       _GetResolutions@4
 0001:0000788F       _DestroyAbortWnd@0
 0001:000078B6       _GetPrinterDC@0
 0001:00007987       _GetNonDefPrinterDC@0
 0001:00007A63       _AbortDlgProc@16
 0001:00007AEF       _StringCchCopyNW@16
 0001:00007B3E       _TranslateString@4
 0001:00007EF2       _PrintHeaderFooter@8
 0001:0000800D       _NpPrintGivenDC@4
 0001:000086AE       _IsLocaleBidi@4
 0001:000086F8       _IsCalendarRtl@4
 0001:0000873A       _SetBiDiDateFlags@4
 0001:0000878A       _InsertDateTime@4
 0001:000088C7       _IsTextUTF8@8
 0001:0000891D       _IsInputTextUnicode@8
 0001:00008C2A       ?DisplayNonGenuineDlgWorker@@YGKPAX@Z
 0001:00008CDF       ?StringCchCopyW@@YGJPAGIPBG@Z
 0001:00008D19       ?StringCchCatW@@YGJPAGIPBG@Z
 0001:00008D73       __except_handler4
 0001:00008D9D       ?__CxxUnhandledExceptionFilter@@YGJPAU_EXCEPTION_POINTERS@@@Z
 0001:00008DE5       __XcptFilter
 0001:00008DF0       __ValidateImageBase
 0001:00008E2A       __FindPESection
 0001:00008E73       __IsNonwritableInCurrentImage
 0001:00008F01       __amsg_exit
 0001:00008F07       ___report_gsfailure
 0001:00008FE4       ExceptionInfo
 0001:00008FF1       __except_handler4_common
 0001:00008FFF       _ClosePrinter@4
 0001:0000900A       _GetPrinterDriverW@24
 0001:00009015       _OpenPrinterW@12
 0001:00009020       _WinSqmIncrementDWORD@12
 0001:0000902B       _VerQueryValueW@16
 0001:00009036       _GetFileVersionInfoExW@20
 0001:00009041       _GetFileVersionInfoSizeExW@12
 0001:00009048       __IMPORT_DESCRIPTOR_ADVAPI32
 0001:0000905C       __IMPORT_DESCRIPTOR_KERNEL32
 0001:00009070       __IMPORT_DESCRIPTOR_GDI32
 0001:00009084       __IMPORT_DESCRIPTOR_USER32
 0001:00009098       __IMPORT_DESCRIPTOR_msvcrt
 0001:000090AC       __IMPORT_DESCRIPTOR_COMDLG32
 0001:000090C0       __IMPORT_DESCRIPTOR_SHELL32
 0001:000090D4       __IMPORT_DESCRIPTOR_WINSPOOL.DRV
 0001:000090E8       __IMPORT_DESCRIPTOR_ole32
 0001:000090FC       __IMPORT_DESCRIPTOR_SHLWAPI
 0001:00009110       __IMPORT_DESCRIPTOR_COMCTL32
 0001:00009124       __IMPORT_DESCRIPTOR_OLEAUT32
 0001:00009138       __IMPORT_DESCRIPTOR_ntdll
 0001:0000914C       __IMPORT_DESCRIPTOR_VERSION
 0001:00009174       aVersion_dll
 0001:00009180       aNtdll_dll
 0001:0000918C       aOleaut32_dll
 0001:0000919C       aComctl32_dll
 0001:000091AC       aShlwapi_dll
 0001:000091B8       aOle32_dll
 0001:000091C4       aWinspool_drv
 0001:000091D4       aShell32_dll
 0001:000091E0       aComdlg32_dll
 0001:000091F0       aMsvcrt_dll
 0001:000091FC       aUser32_dll
 0001:00009208       aGdi32_dll
 0001:00009214       aKernel32_dll
 0001:00009224       aAdvapi32_dll
 0002:00000000       _chMerge
 0002:00000004       _iPointSize
 0002:00000008       _fUntitled
 0002:0000000C       _g_ftOpenedAs
 0002:00000010       ___security_cookie
 0002:00000014       ___security_cookie_complement
 0002:00000020       _hwndNP
 0002:00000024       _hwndStatus
 0002:00000028       _hwndEdit
 0002:0000002C       _fStatus
 0002:00000030       _dwEmSetHandle
 0002:00000034       _fWrap
 0002:00000038       _fInSaveAsDlg
 0002:0000003C       _g_fFontSettingChanged
 0002:00000040       _fMLE_is_broken
 0002:00000044       _dwCurrentSelectionStart
 0002:00000048       _dwCurrentSelectionEnd
 0002:0000004C       nHeight
 0002:00000050       nWidth
 0002:00000054       X
 0002:00000058       Y
 0002:00000074       _fp
 0002:00000078       _wHlpMsg
 0002:0000007C       _wFRMsg
 0002:00000080       _hAccel
 0002:00000084       _dyStatus
 0002:00000088       _hFont
 0002:0000008C       _hInstanceNP
 0002:00000090       _hWaitCursor
 0002:00000094       _hStdCursor
 0002:00000098       _hEdit
 0002:0000009C       ___onexitend
 0002:000000A0       ___onexitbegin
 0002:000000A4       ___native_startup_state
 0002:000000C0       _FR
 0002:00000100       _g_wpOrig
 0002:00000140       _g_PageSetupDlg
 0002:000001A0       _OFN
 0002:00000200       _FontStruct
 0002:0000025C       ___native_startup_lock
 0002:0000026C       _c_CFileDialogControlEvents
 0002:00000288       _c_CFileDialogEvents
 0002:000002B0       _szDiskError
 0002:000002B4       _szFNF
 0002:000002B8       _szSCBC
 0002:000002BC       _szUntitled
 0002:000002C0       _szNpTitle
 0002:000002C4       _szCFS
 0002:000002C8       _szErrSpace
 0002:000002CC       _szFTL
 0002:000002D0       _szNN
 0002:000002D4       _szCommDlgInitErr
 0002:000002D8       _szPDIE
 0002:000002DC       _szCP
 0002:000002E0       _szNVF
 0002:000002E4       _szCREATEERR
 0002:000002E8       _szTRANSERR
 0002:000002EC       _szNoWW
 0002:000002F0       _szMerge
 0002:000002F4       _szHelpFile
 0002:00000304       _szAnsiText
 0002:00000308       _szAllFiles
 0002:0000030C       _szOpenCaption
 0002:00000310       _szSaveCaption
 0002:00000314       _szCannotQuit
 0002:00000318       _szLoadDrvFail
 0002:0000031C       _szACCESSDENY
 0002:00000320       _szErrUnicode
 0002:00000324       _szFontTooBig
 0002:00000328       _szCommDlgErr
 0002:0000032C       _szLineError
 0002:00000330       _szLineTooLarge
 0002:00000334       _szFtAnsi
 0002:00000338       _szFtUnicode
 0002:0000033C       _szFtUnicodeBe
 0002:00000340       _szFtUtf8
 0002:00000344       _szCurrentPage
 0002:00000348       _szLineCol
 0002:0000034C       _szCompressedFile
 0002:00000350       _szEncryptedFile
 0002:00000354       _szHiddenFile
 0002:00000358       _szOfflineFile
 0002:0000035C       _szReadOnlyFile
 0002:00000360       _szSystemFile
 0002:00000364       _szFile
 0002:00000368       _szEncoding
 0002:000006A0       _chPageTextTemp
 0002:000006F0       pszSrc
 0002:00000740       _chPageText
 0002:00000790       Data
 0002:000007E0       _szSaveFilterSpec
 0002:00000880       _szOpenFilterSpec
 0002:00000920       _rgsz
 0002:000009E0       _szSearch
 0002:00000AE0       _szFileName
 0002:00000CE8       _hDlgFind
 0002:00000CEC       _fRunBySetup
 0002:00000CF0       _g_fUISettingChanged
 0002:00000CF4       _g_fPageSetupChanges
 0002:00000CF8       ___defaultmatherr
 0002:00000CFC       __dowildcard
 0002:00000D00       __newmode
 0002:00000D04       __commode
 0002:00000D08       __fmode
 0002:00000D0C       ___dyn_tls_init_callback
 0002:00000D10       _maperror
 0002:00000D50       _BOM_UTF8
 0002:00000D60       _szFormattedDate
 0002:00000F68       _szFormattedTime
 0002:00001170       String2
 0002:00001378       pv
 0002:00001580       _fLastStatus
 0002:00001790       lParam
 0002:00001794       wParam
 0002:00001798       _fCase
 0002:0000179C       _fReverse
 0002:000017A0       hMenu
 0002:000017A4       ?g_lExisting@@3JA
 0002:000017AC       _iPageNum
 0002:000017B0       _dxRight
 0002:000017B4       _dxLeft
 0002:000017B8       _dyBottom
 0002:000017BC       _dyTop
 0002:000017C0       _yPhysOff
 0002:000017C4       _xPhysOff
 0002:000017C8       _yPhysRes
 0002:000017CC       _xPhysRes
 0002:000017D0       _yPixInch
 0002:000017D4       _yPrintRes
 0002:000017D8       _xPrintRes
 0002:000017E0       _PrintTime
 0002:00001800       _chBuff
 0002:00001E20       _rtMargin
 0002:00001E30       _yPrintChar
 0002:00001E34       _fAbort
 0002:00001E38       _hAbortDlgWnd
 0002:00001E3C       _tabSize
 0002:00001E40       _szPrinterName
 0002:00002040       _g_ftSaveAs
 0002:00002044       _hSysMenuSetup
 0002:00002060       _szReplace
 0002:00002160       _lGotoLine

Program entry point at 0001:00002689
