(dp0
S'James Lee'
p1
ccopy_reg
_reconstructor
p2
(cathletelist
AthleteList
p3
c__builtin__
list
p4
(lp5
S'2-34'
p6
aS'3:21'
p7
aS'2.34'
p8
aS'2.45'
p9
aS'3.01'
p10
aS'2:01'
p11
aS'2:01'
p12
aS'3:10'
p13
aS'2-22'
p14
aS'2-01'
p15
aS'2.01'
p16
aS'2:16'
p17
atp18
Rp19
(dp20
S'dob'
p21
S'2002-3-14'
p22
sS'name'
p23
g1
sbsS'Sarah Sweeney'
p24
g2
(g3
g4
(lp25
S'2:58'
p26
aS'2.58'
p27
aS'2:39'
p28
aS'2-25'
p29
aS'2-55'
p30
aS'2:54'
p31
aS'2.18'
p32
aS'2:55'
p33
aS'2:55'
p34
aS'2:22'
p35
aS'2-21'
p36
aS'2.22'
p37
atp38
Rp39
(dp40
g21
S'2002-6-17'
p41
sg23
g24
sbsS'Vera Vi'
p42
g2
(g3
g4
(lp43
S'2.49'
p44
aS'3.11'
p45
aS'3:11'
p46
aS'3:23'
p47
aS'3-01'
p48
aS'3-23'
p49
aS'3:01'
p50
aS'2.41'
p51
aS'2-41'
p52
aS'3.02'
p53
aS'3.01'
p54
aS'2:49'
p55
atp56
Rp57
(dp58
g21
S'2002-12-25'
p59
sg23
g42
sbsS'Julie Jones'
p60
g2
(g3
g4
(lp61
S'2.59'
p62
aS'2.11'
p63
aS'2:11'
p64
aS'2:23'
p65
aS'3-10'
p66
aS'2-23'
p67
aS'3:10'
p68
aS'3.21'
p69
aS'3-21'
p70
aS'3.01'
p71
aS'3.02'
p72
aS'2:59'
p73
atp74
Rp75
(dp76
g21
S'2002-8-17'
p77
sg23
g60
sbsS'Sally Sanchez'
p78
g2
(g3
g4
(lp79
S'2-44'
p80
aS'3:01'
p81
aS'2.44'
p82
aS'2.55'
p83
aS'2.51'
p84
aS'2:41'
p85
aS'2:41'
p86
aS'3:00'
p87
aS'2-32'
p88
aS'2-31'
p89
aS'2.11'
p90
aS'2:26'
p91
atp92
Rp93
(dp94
g21
S'2002-11-24'
p95
sg23
g78
sbsS'Mikey McManus'
p96
g2
(g3
g4
(lp97
S'2:22'
p98
aS'3.01'
p99
aS'3:01'
p100
aS'3.02'
p101
aS'3:02'
p102
aS'3.02'
p103
aS'3:22'
p104
aS'2.49'
p105
aS'2:38'
p106
aS'2:40'
p107
aS'2.22'
p108
aS'2-31'
p109
atp110
Rp111
(dp112
g21
S'2002-2-24'
p113
sg23
g96
sbs.